; ModuleID = '10/1833.c'
source_filename = "10/1833.c"
target datalayout = "e-m:e-p270:32:32-p271:32:32-p272:64:64-i64:64-f80:128-n8:16:32:64-S128"
target triple = "x86_64-pc-linux-gnu"

@.str = private unnamed_addr constant [3 x i8] c"%d\00", align 1

; Function Attrs: noinline nounwind uwtable
define dso_local i32 @MAX(i32 %0, i32 %1) #0 {
  %3 = alloca i32, align 4
  %4 = alloca i32, align 4
  store i32 %0, i32* %3, align 4
  store i32 %1, i32* %4, align 4
  %5 = load i32, i32* %3, align 4
  %6 = load i32, i32* %4, align 4
  %7 = icmp sgt i32 %5, %6
  br i1 %7, label %8, label %10

8:                                                ; preds = %2
  %9 = load i32, i32* %3, align 4
  br label %12

10:                                               ; preds = %2
  %11 = load i32, i32* %4, align 4
  br label %12

12:                                               ; preds = %10, %8
  %13 = phi i32 [ %9, %8 ], [ %11, %10 ]
  ret i32 %13
}

; Function Attrs: noinline nounwind uwtable
define dso_local i32 @FIRE(i32* %0, i32 %1, i32 %2, i32 %3) #0 {
  %5 = alloca i32, align 4
  %6 = alloca i32*, align 8
  %7 = alloca i32, align 4
  %8 = alloca i32, align 4
  %9 = alloca i32, align 4
  store i32* %0, i32** %6, align 8
  store i32 %1, i32* %7, align 4
  store i32 %2, i32* %8, align 4
  store i32 %3, i32* %9, align 4
  %10 = load i32, i32* %8, align 4
  %11 = load i32, i32* %9, align 4
  %12 = icmp eq i32 %10, %11
  br i1 %12, label %13, label %22

13:                                               ; preds = %4
  %14 = load i32, i32* %7, align 4
  %15 = load i32*, i32** %6, align 8
  %16 = load i32, i32* %9, align 4
  %17 = sext i32 %16 to i64
  %18 = getelementptr inbounds i32, i32* %15, i64 %17
  %19 = load i32, i32* %18, align 4
  %20 = icmp sge i32 %14, %19
  %21 = zext i1 %20 to i32
  store i32 %21, i32* %5, align 4
  br label %66

22:                                               ; preds = %4
  %23 = load i32, i32* %7, align 4
  %24 = load i32*, i32** %6, align 8
  %25 = load i32, i32* %8, align 4
  %26 = sext i32 %25 to i64
  %27 = getelementptr inbounds i32, i32* %24, i64 %26
  %28 = load i32, i32* %27, align 4
  %29 = icmp sge i32 %23, %28
  br i1 %29, label %30, label %49

30:                                               ; preds = %22
  %31 = load i32*, i32** %6, align 8
  %32 = load i32, i32* %7, align 4
  %33 = load i32, i32* %8, align 4
  %34 = add nsw i32 %33, 1
  %35 = load i32, i32* %9, align 4
  %36 = call i32 @FIRE(i32* %31, i32 %32, i32 %34, i32 %35)
  %37 = load i32*, i32** %6, align 8
  %38 = load i32*, i32** %6, align 8
  %39 = load i32, i32* %8, align 4
  %40 = sext i32 %39 to i64
  %41 = getelementptr inbounds i32, i32* %38, i64 %40
  %42 = load i32, i32* %41, align 4
  %43 = load i32, i32* %8, align 4
  %44 = add nsw i32 %43, 1
  %45 = load i32, i32* %9, align 4
  %46 = call i32 @FIRE(i32* %37, i32 %42, i32 %44, i32 %45)
  %47 = add nsw i32 %46, 1
  %48 = call i32 @MAX(i32 %36, i32 %47)
  store i32 %48, i32* %5, align 4
  br label %66

49:                                               ; preds = %22
  %50 = load i32, i32* %7, align 4
  %51 = load i32*, i32** %6, align 8
  %52 = load i32, i32* %8, align 4
  %53 = sext i32 %52 to i64
  %54 = getelementptr inbounds i32, i32* %51, i64 %53
  %55 = load i32, i32* %54, align 4
  %56 = icmp slt i32 %50, %55
  br i1 %56, label %57, label %64

57:                                               ; preds = %49
  %58 = load i32*, i32** %6, align 8
  %59 = load i32, i32* %7, align 4
  %60 = load i32, i32* %8, align 4
  %61 = add nsw i32 %60, 1
  %62 = load i32, i32* %9, align 4
  %63 = call i32 @FIRE(i32* %58, i32 %59, i32 %61, i32 %62)
  store i32 %63, i32* %5, align 4
  br label %66

64:                                               ; preds = %49
  br label %65

65:                                               ; preds = %64
  br label %66

66:                                               ; preds = %13, %30, %57, %65
  %67 = load i32, i32* %5, align 4
  ret i32 %67
}

; Function Attrs: noinline nounwind uwtable
define dso_local i32 @main() #0 {
  %1 = alloca i32, align 4
  %2 = alloca i32, align 4
  %3 = alloca i32, align 4
  %4 = alloca i32, align 4
  %5 = alloca [26 x i32], align 16
  store i32 0, i32* %1, align 4
  %6 = call i32 (i8*, ...) @__isoc99_scanf(i8* getelementptr inbounds ([3 x i8], [3 x i8]* @.str, i64 0, i64 0), i32* %2)
  store i32 1, i32* %3, align 4
  br label %7

7:                                                ; preds = %17, %0
  %8 = load i32, i32* %3, align 4
  %9 = load i32, i32* %2, align 4
  %10 = icmp sle i32 %8, %9
  br i1 %10, label %11, label %20

11:                                               ; preds = %7
  %12 = getelementptr inbounds [26 x i32], [26 x i32]* %5, i64 0, i64 0
  %13 = load i32, i32* %3, align 4
  %14 = sext i32 %13 to i64
  %15 = getelementptr inbounds i32, i32* %12, i64 %14
  %16 = call i32 (i8*, ...) @__isoc99_scanf(i8* getelementptr inbounds ([3 x i8], [3 x i8]* @.str, i64 0, i64 0), i32* %15)
  br label %17

17:                                               ; preds = %11
  %18 = load i32, i32* %3, align 4
  %19 = add nsw i32 %18, 1
  store i32 %19, i32* %3, align 4
  br label %7

20:                                               ; preds = %7
  %21 = getelementptr inbounds [26 x i32], [26 x i32]* %5, i64 0, i64 0
  %22 = load i32, i32* %2, align 4
  %23 = call i32 @FIRE(i32* %21, i32 65530, i32 1, i32 %22)
  %24 = call i32 (i8*, ...) @printf(i8* getelementptr inbounds ([3 x i8], [3 x i8]* @.str, i64 0, i64 0), i32 %23)
  %25 = load i32, i32* %1, align 4
  ret i32 %25
}

declare dso_local i32 @__isoc99_scanf(i8*, ...) #1

declare dso_local i32 @printf(i8*, ...) #1


!llvm.module.flags = !{!0}
!llvm.ident = !{!1}

!0 = !{i32 1, !"wchar_size", i32 4}
!1 = !{!"clang version 10.0.0-4ubuntu1 "}
